target datalayout = "e-m:e-p270:32:32-p271:32:32-p272:64:64-i64:64-i128:128-f80:128-n8:16:32:64-S128"
target triple = "x86_64-pc-linux-gnu"

%struct.fake_rsa_keydata = type { i32, i32 }

@.str.9 = private unnamed_addr constant [31 x i8] c"../openssl/test/fake_rsaprov.c\00", align 1
@.str.31 = private unnamed_addr constant [54 x i8] c"key = OPENSSL_zalloc(sizeof(struct fake_rsa_keydata))\00", align 1
@has_selection = internal global i32 0, align 4
@imptypes_selection = internal global i32 0, align 4
@exptypes_selection = internal global i32 0, align 4
@query_id = internal global i32 0, align 4
@fake_rsa_gen.inited = internal constant [1 x i8] c"\01", align 1
@.str.37 = private unnamed_addr constant [5 x i8] c"gctx\00", align 1
@.str.38 = private unnamed_addr constant [7 x i8] c"inited\00", align 1
@.str.39 = private unnamed_addr constant [37 x i8] c"keydata = fake_rsa_keymgmt_new(NULL)\00", align 1

; Function Attrs: nounwind uwtable
define internal ptr @fake_rsa_keymgmt_new(ptr noundef %0) #0 {
  %2 = alloca ptr, align 8
  %3 = alloca ptr, align 8
  %4 = alloca ptr, align 8
  %5 = alloca i32, align 4
  store ptr %0, ptr %3, align 8, !tbaa !19
  call void @llvm.lifetime.start.p0(i64 8, ptr %4) #6
  %6 = call noalias ptr @CRYPTO_zalloc(i64 noundef 8, ptr noundef @.str.9, i32 noundef 49)
  store ptr %6, ptr %4, align 8, !tbaa !26
  %7 = call i32 @test_ptr(ptr noundef @.str.9, i32 noundef 49, ptr noundef @.str.31, ptr noundef %6)
  %8 = icmp ne i32 %7, 0
  br i1 %8, label %10, label %9

9:                                                ; preds = %1
  store ptr null, ptr %2, align 8
  store i32 1, ptr %5, align 4
  br label %12

10:                                               ; preds = %1
  store i32 0, ptr @has_selection, align 4, !tbaa !4
  store i32 0, ptr @imptypes_selection, align 4, !tbaa !4
  store i32 0, ptr @exptypes_selection, align 4, !tbaa !4
  store i32 0, ptr @query_id, align 4, !tbaa !4
  %11 = load ptr, ptr %4, align 8, !tbaa !26
  store ptr %11, ptr %2, align 8
  store i32 1, ptr %5, align 4
  br label %12

12:                                               ; preds = %10, %9
  call void @llvm.lifetime.end.p0(i64 8, ptr %4) #6
  %13 = load ptr, ptr %2, align 8
  ret ptr %13
}

; Function Attrs: nounwind uwtable
define internal ptr @fake_rsa_gen(ptr noundef %0, ptr noundef %1, ptr noundef %2) #0 {
  %4 = alloca ptr, align 8
  %5 = alloca ptr, align 8
  %6 = alloca ptr, align 8
  %7 = alloca ptr, align 8
  %8 = alloca ptr, align 8
  %9 = alloca ptr, align 8
  %10 = alloca i32, align 4
  store ptr %0, ptr %5, align 8, !tbaa !19
  store ptr %1, ptr %6, align 8, !tbaa !19
  store ptr %2, ptr %7, align 8, !tbaa !19
  call void @llvm.lifetime.start.p0(i64 8, ptr %8) #6
  %11 = load ptr, ptr %5, align 8, !tbaa !19
  store ptr %11, ptr %8, align 8, !tbaa !22
  call void @llvm.lifetime.start.p0(i64 8, ptr %9) #6
  %12 = load ptr, ptr %8, align 8, !tbaa !22
  %13 = call i32 @test_ptr(ptr noundef @.str.9, i32 noundef 254, ptr noundef @.str.37, ptr noundef %12)
  %14 = icmp ne i32 %13, 0
  br i1 %14, label %15, label %19

15:                                               ; preds = %3
  %16 = load ptr, ptr %8, align 8, !tbaa !22
  %17 = call i32 @test_mem_eq(ptr noundef @.str.9, i32 noundef 255, ptr noundef @.str.37, ptr noundef @.str.38, ptr noundef %16, i64 noundef 1, ptr noundef @fake_rsa_gen.inited, i64 noundef 1)
  %18 = icmp ne i32 %17, 0
  br i1 %18, label %20, label %19

19:                                               ; preds = %15, %3
  store ptr null, ptr %4, align 8
  store i32 1, ptr %10, align 4
  br label %29

20:                                               ; preds = %15
  %21 = call ptr @fake_rsa_keymgmt_new(ptr noundef null)
  store ptr %21, ptr %9, align 8, !tbaa !26
  %22 = call i32 @test_ptr(ptr noundef @.str.9, i32 noundef 258, ptr noundef @.str.39, ptr noundef %21)
  %23 = icmp ne i32 %22, 0
  br i1 %23, label %25, label %24

24:                                               ; preds = %20
  store ptr null, ptr %4, align 8
  store i32 1, ptr %10, align 4
  br label %29

25:                                               ; preds = %20
  %26 = load ptr, ptr %9, align 8, !tbaa !26
  %27 = getelementptr inbounds nuw %struct.fake_rsa_keydata, ptr %26, i32 0, i32 1
  store i32 2, ptr %27, align 4, !tbaa !28
  %28 = load ptr, ptr %9, align 8, !tbaa !26
  store ptr %28, ptr %4, align 8
  store i32 1, ptr %10, align 4
  br label %29

29:                                               ; preds = %25, %24, %19
  call void @llvm.lifetime.end.p0(i64 8, ptr %9) #6
  call void @llvm.lifetime.end.p0(i64 8, ptr %8) #6
  %30 = load ptr, ptr %4, align 8
  ret ptr %30
}