; Function Attrs: nounwind uwtable
define internal noundef ptr @fake_rsa_gen(ptr noundef %0, ptr readnone captures(none) %1, ptr readnone captures(none) %2) #1 {
  %4 = tail call i32 @test_ptr(ptr noundef nonnull @.str.9, i32 noundef 254, ptr noundef nonnull @.str.37, ptr noundef %0) #12
  %.not = icmp eq i32 %4, 0
  br i1 %.not, label %13, label %5

5:                                                ; preds = %3
  %6 = tail call i32 @test_mem_eq(ptr noundef nonnull @.str.9, i32 noundef 255, ptr noundef nonnull @.str.37, ptr noundef nonnull @.str.38, ptr noundef %0, i64 noundef 1, ptr noundef nonnull @fake_rsa_gen.inited, i64 noundef 1) #12
  %.not6 = icmp eq i32 %6, 0
  br i1 %.not6, label %13, label %7

7:                                                ; preds = %5
  %8 = tail call noalias ptr @CRYPTO_zalloc(i64 noundef 8, ptr noundef nonnull @.str.9, i32 noundef 49) #12
  %9 = tail call i32 @test_ptr(ptr noundef nonnull @.str.9, i32 noundef 49, ptr noundef nonnull @.str.31, ptr noundef %8) #12
  %.not.i = icmp eq i32 %9, 0
  %..i = select i1 %.not.i, ptr null, ptr %8
  %10 = tail call i32 @test_ptr(ptr noundef nonnull @.str.9, i32 noundef 258, ptr noundef nonnull @.str.39, ptr noundef %..i) #12
  %.not7 = icmp eq i32 %10, 0
  br i1 %.not7, label %13, label %11

11:                                               ; preds = %7
  %12 = getelementptr inbounds nuw i8, ptr %..i, i64 4
  store i32 2, ptr %12, align 4, !tbaa !12
  br label %13

13:                                               ; preds = %7, %3, %5, %11
  %.0 = phi ptr [ %8, %11 ], [ null, %5 ], [ null, %3 ], [ null, %7 ]
  ret ptr %.0
}